; Function Attrs: mustprogress nofree norecurse nosync nounwind willreturn memory(none) uwtable
define internal noundef zeroext i1 @_ZNK7V3Sched12_GLOBAL__N_123SchedReplicateVarVertex23isInstanceOfClassWithIdEm(ptr nocapture nonnull readnone align 8 %0, i64 noundef %1) unnamed_addr #10 align 2 {
  %3 = icmp eq i64 %1, ptrtoint (ptr @_ZZN7V3Sched12_GLOBAL__N_123SchedReplicateVarVertex11rttiClassIdEvE15aStaticVariable to i64)
  br i1 %3, label %_ZN14V3RttiInternalL16isClassIdOfOneOfIN7V3Sched12_GLOBAL__N_123SchedReplicateVarVertexEJNS2_20SchedReplicateVertexE13V3GraphVertexEEEbm9VTypeListIJT_DpT0_EE.exit, label %4

4:                                                ; preds = %2
  %5 = icmp eq i64 %1, ptrtoint (ptr @_ZZN7V3Sched12_GLOBAL__N_120SchedReplicateVertex11rttiClassIdEvE15aStaticVariable to i64)
  %6 = icmp eq i64 %1, ptrtoint (ptr @_ZZN13V3GraphVertex11rttiClassIdEvE15aStaticVariable to i64)
  %spec.select.i.i = or i1 %5, %6
  br label %_ZN14V3RttiInternalL16isClassIdOfOneOfIN7V3Sched12_GLOBAL__N_123SchedReplicateVarVertexEJNS2_20SchedReplicateVertexE13V3GraphVertexEEEbm9VTypeListIJT_DpT0_EE.exit

_ZN14V3RttiInternalL16isClassIdOfOneOfIN7V3Sched12_GLOBAL__N_123SchedReplicateVarVertexEJNS2_20SchedReplicateVertexE13V3GraphVertexEEEbm9VTypeListIJT_DpT0_EE.exit: ; preds = %2, %4
  %7 = phi i1 [ true, %2 ], [ %spec.select.i.i, %4 ]
  ret i1 %7
}